target datalayout = "e-m:e-p270:32:32-p271:32:32-p272:64:64-i64:64-i128:128-f80:128-n8:16:32:64-S128"
target triple = "x86_64-pc-linux-gnu"

%"class.zmq::msg_t" = type { %union.anon }
%union.anon = type { %struct.anon }
%struct.anon = type { ptr, [34 x i8], i8, i8, i32, %"union.zmq::msg_t::group_t" }
%"union.zmq::msg_t::group_t" = type { %struct.anon.1 }
%struct.anon.1 = type { i8, ptr }
%struct.anon.0 = type { i8, [15 x i8] }
%"class.zmq::atomic_counter_t" = type { %"struct.std::atomic", [4 x i8] }
%"struct.std::atomic" = type { %"struct.std::__atomic_base" }
%"struct.std::__atomic_base" = type { i32 }
%"struct.zmq::msg_t::long_group_t" = type { [256 x i8], %"class.zmq::atomic_counter_t" }

; Function Attrs: mustprogress nounwind uwtable
define noundef ptr @_ZNK3zmq5msg_t5groupEv(ptr noundef nonnull align 8 dereferenceable(64) %0) #0 align 2 {
  %2 = alloca ptr, align 8
  %3 = alloca ptr, align 8
  store ptr %0, ptr %3, align 8, !tbaa !3
  %4 = load ptr, ptr %3, align 8
  %5 = getelementptr inbounds nuw %"class.zmq::msg_t", ptr %4, i32 0, i32 0
  %6 = getelementptr inbounds nuw %struct.anon, ptr %5, i32 0, i32 5
  %7 = load i8, ptr %6, align 8, !tbaa !8
  %8 = zext i8 %7 to i32
  %9 = icmp eq i32 %8, 1
  br i1 %9, label %10, label %17

10:                                               ; preds = %1
  %11 = getelementptr inbounds nuw %"class.zmq::msg_t", ptr %4, i32 0, i32 0
  %12 = getelementptr inbounds nuw %struct.anon, ptr %11, i32 0, i32 5
  %13 = getelementptr inbounds nuw %struct.anon.1, ptr %12, i32 0, i32 1
  %14 = load ptr, ptr %13, align 8, !tbaa !8
  %15 = getelementptr inbounds nuw %"struct.zmq::msg_t::long_group_t", ptr %14, i32 0, i32 0
  %16 = getelementptr inbounds [256 x i8], ptr %15, i64 0, i64 0
  store ptr %16, ptr %2, align 8
  br label %22

17:                                               ; preds = %1
  %18 = getelementptr inbounds nuw %"class.zmq::msg_t", ptr %4, i32 0, i32 0
  %19 = getelementptr inbounds nuw %struct.anon, ptr %18, i32 0, i32 5
  %20 = getelementptr inbounds nuw %struct.anon.0, ptr %19, i32 0, i32 1
  %21 = getelementptr inbounds [15 x i8], ptr %20, i64 0, i64 0
  store ptr %21, ptr %2, align 8
  br label %22

22:                                               ; preds = %17, %10
  %23 = load ptr, ptr %2, align 8
  ret ptr %23
}