; Function Attrs: mustprogress nofree norecurse nosync nounwind willreturn memory(argmem: read) uwtable
define noundef ptr @_ZNK3zmq5msg_t5groupEv(ptr noundef nonnull readonly align 8 dereferenceable(64) %0) local_unnamed_addr #0 align 2 {
  %2 = getelementptr inbounds nuw i8, ptr %0, i64 48
  %3 = load i8, ptr %2, align 8, !tbaa !3
  %4 = icmp eq i8 %3, 1
  %5 = getelementptr inbounds nuw i8, ptr %0, i64 56
  %6 = load ptr, ptr %5, align 8
  %7 = getelementptr inbounds nuw i8, ptr %0, i64 49
  %.0 = select i1 %4, ptr %6, ptr %7
  ret ptr %.0
}